target datalayout = "e-m:e-p270:32:32-p271:32:32-p272:64:64-i64:64-i128:128-f80:128-n8:16:32:64-S128"
target triple = "x86_64-pc-linux-gnu"

%class.Klass = type <{ %class.Metadata, i32, i32, i32, i32, ptr, ptr, ptr, [8 x ptr], %class.OopHandle, ptr, ptr, ptr, ptr, ptr, i32, %class.AccessFlags, i64, i64, i8, i8, i16, i16, [2 x i8], i32, [4 x i8] }>
%class.Metadata = type { ptr }
%class.OopHandle = type { ptr }
%class.AccessFlags = type { i32 }
%class.ClassListParser = type { ptr, %class.ResizeableResourceHashtable, %class.FileInput, %class.inputStream, ptr, i32, ptr, ptr, i32, i32, ptr, i8, ptr, i32, ptr }
%class.ResizeableResourceHashtable = type { %class.ResourceHashtableBase.base, i32 }
%class.ResourceHashtableBase.base = type <{ %class.ResizeableResourceHashtableStorage, i32 }>
%class.ResizeableResourceHashtableStorage = type { i32, ptr }
%class.FileInput = type { %"class.inputStream::Input", ptr, %class.fileStream }
%"class.inputStream::Input" = type { ptr }
%class.fileStream = type <{ %class.outputStream, ptr, i8, [7 x i8] }>
%class.outputStream = type { ptr, i32, i8, i32, i64, %class.TimeStamp, ptr, i64 }
%class.TimeStamp = type { i64 }
%class.inputStream = type { ptr, ptr, i32, i8, ptr, i64, i64, i64, i64, i64, i64, [240 x i8] }
%class.ResourceHashtableNode = type { i32, i32, ptr, ptr }

@.str.59 = private unnamed_addr constant [33 x i8] c"Class ID %d has not been defined\00", align 1
@.str.60 = private unnamed_addr constant [74 x i8] c"The specified super class %s (id %d) does not match actual super class %s\00", align 1

; Function Attrs: mustprogress nounwind uwtable
define linkonce_odr hidden noundef ptr @_ZNK34ResizeableResourceHashtableStorageIiP13InstanceKlassLN6AnyObj15allocation_typeE2EL8MEMFLAGS13EE5tableEv(ptr noundef nonnull align 8 dereferenceable(16) %0) #1 comdat align 2 {
  %2 = alloca ptr, align 8
  store ptr %0, ptr %2, align 8
  %3 = load ptr, ptr %2, align 8
  %4 = getelementptr inbounds %class.ResizeableResourceHashtableStorage, ptr %3, i32 0, i32 1
  %5 = load ptr, ptr %4, align 8
  ret ptr %5
}

; Function Attrs: mustprogress nounwind uwtable
define linkonce_odr hidden noundef ptr @_ZNK21ResourceHashtableBaseI34ResizeableResourceHashtableStorageIiP13InstanceKlassLN6AnyObj15allocation_typeE2EL8MEMFLAGS13EEiS2_LS4_2ELS5_13EXadL_Z14primitive_hashIiEjRKT_EEXadL_Z16primitive_equalsIiEbSA_SA_EEE5tableEv(ptr noundef nonnull align 8 dereferenceable(20) %0) #1 comdat align 2 {
  %2 = alloca ptr, align 8
  store ptr %0, ptr %2, align 8
  %3 = load ptr, ptr %2, align 8
  %4 = call noundef ptr @_ZNK34ResizeableResourceHashtableStorageIiP13InstanceKlassLN6AnyObj15allocation_typeE2EL8MEMFLAGS13EE5tableEv(ptr noundef nonnull align 8 dereferenceable(16) %3)
  ret ptr %4
}

; Function Attrs: mustprogress nounwind uwtable
define linkonce_odr hidden noundef i32 @_ZNK34ResizeableResourceHashtableStorageIiP13InstanceKlassLN6AnyObj15allocation_typeE2EL8MEMFLAGS13EE10table_sizeEv(ptr noundef nonnull align 8 dereferenceable(16) %0) #1 comdat align 2 {
  %2 = alloca ptr, align 8
  store ptr %0, ptr %2, align 8
  %3 = load ptr, ptr %2, align 8
  %4 = getelementptr inbounds %class.ResizeableResourceHashtableStorage, ptr %3, i32 0, i32 0
  %5 = load i32, ptr %4, align 8
  ret i32 %5
}

; Function Attrs: mustprogress nounwind uwtable
define linkonce_odr hidden noundef zeroext i1 @_Z16primitive_equalsIiEbRKT_S2_(ptr noundef nonnull align 4 dereferenceable(4) %0, ptr noundef nonnull align 4 dereferenceable(4) %1) #1 comdat {
  %3 = alloca ptr, align 8
  %4 = alloca ptr, align 8
  store ptr %0, ptr %3, align 8
  store ptr %1, ptr %4, align 8
  %5 = load ptr, ptr %3, align 8
  %6 = load i32, ptr %5, align 4
  %7 = load ptr, ptr %4, align 8
  %8 = load i32, ptr %7, align 4
  %9 = icmp eq i32 %6, %8
  ret i1 %9
}

; Function Attrs: mustprogress nounwind uwtable
define linkonce_odr hidden noundef ptr @_ZN21ResourceHashtableBaseI34ResizeableResourceHashtableStorageIiP13InstanceKlassLN6AnyObj15allocation_typeE2EL8MEMFLAGS13EEiS2_LS4_2ELS5_13EXadL_Z14primitive_hashIiEjRKT_EEXadL_Z16primitive_equalsIiEbSA_SA_EEE9bucket_atEj(ptr noundef nonnull align 8 dereferenceable(20) %0, i32 noundef %1) #1 comdat align 2 {
  %3 = alloca ptr, align 8
  %4 = alloca i32, align 4
  %5 = alloca ptr, align 8
  store ptr %0, ptr %3, align 8
  store i32 %1, ptr %4, align 4
  %6 = load ptr, ptr %3, align 8
  %7 = call noundef ptr @_ZNK21ResourceHashtableBaseI34ResizeableResourceHashtableStorageIiP13InstanceKlassLN6AnyObj15allocation_typeE2EL8MEMFLAGS13EEiS2_LS4_2ELS5_13EXadL_Z14primitive_hashIiEjRKT_EEXadL_Z16primitive_equalsIiEbSA_SA_EEE5tableEv(ptr noundef nonnull align 8 dereferenceable(20) %6)
  store ptr %7, ptr %5, align 8
  %8 = load ptr, ptr %5, align 8
  %9 = load i32, ptr %4, align 4
  %10 = zext i32 %9 to i64
  %11 = getelementptr inbounds ptr, ptr %8, i64 %10
  ret ptr %11
}

; Function Attrs: mustprogress nounwind uwtable
define linkonce_odr hidden noundef i32 @_ZNK21ResourceHashtableBaseI34ResizeableResourceHashtableStorageIiP13InstanceKlassLN6AnyObj15allocation_typeE2EL8MEMFLAGS13EEiS2_LS4_2ELS5_13EXadL_Z14primitive_hashIiEjRKT_EEXadL_Z16primitive_equalsIiEbSA_SA_EEE10table_sizeEv(ptr noundef nonnull align 8 dereferenceable(20) %0) #1 comdat align 2 {
  %2 = alloca ptr, align 8
  store ptr %0, ptr %2, align 8
  %3 = load ptr, ptr %2, align 8
  %4 = call noundef i32 @_ZNK34ResizeableResourceHashtableStorageIiP13InstanceKlassLN6AnyObj15allocation_typeE2EL8MEMFLAGS13EE10table_sizeEv(ptr noundef nonnull align 8 dereferenceable(16) %3)
  ret i32 %4
}

; Function Attrs: mustprogress nounwind uwtable
define linkonce_odr hidden noundef ptr @_ZN21ResourceHashtableBaseI34ResizeableResourceHashtableStorageIiP13InstanceKlassLN6AnyObj15allocation_typeE2EL8MEMFLAGS13EEiS2_LS4_2ELS5_13EXadL_Z14primitive_hashIiEjRKT_EEXadL_Z16primitive_equalsIiEbSA_SA_EEE11lookup_nodeEjRKi(ptr noundef nonnull align 8 dereferenceable(20) %0, i32 noundef %1, ptr noundef nonnull align 4 dereferenceable(4) %2) #1 comdat align 2 {
  %4 = alloca ptr, align 8
  %5 = alloca i32, align 4
  %6 = alloca ptr, align 8
  %7 = alloca i32, align 4
  %8 = alloca ptr, align 8
  %9 = alloca ptr, align 8
  store ptr %0, ptr %4, align 8
  store i32 %1, ptr %5, align 4
  store ptr %2, ptr %6, align 8
  %10 = load ptr, ptr %4, align 8
  %11 = load i32, ptr %5, align 4
  %12 = call noundef i32 @_ZNK21ResourceHashtableBaseI34ResizeableResourceHashtableStorageIiP13InstanceKlassLN6AnyObj15allocation_typeE2EL8MEMFLAGS13EEiS2_LS4_2ELS5_13EXadL_Z14primitive_hashIiEjRKT_EEXadL_Z16primitive_equalsIiEbSA_SA_EEE10table_sizeEv(ptr noundef nonnull align 8 dereferenceable(20) %10)
  %13 = urem i32 %11, %12
  store i32 %13, ptr %7, align 4
  %14 = load i32, ptr %7, align 4
  %15 = call noundef ptr @_ZN21ResourceHashtableBaseI34ResizeableResourceHashtableStorageIiP13InstanceKlassLN6AnyObj15allocation_typeE2EL8MEMFLAGS13EEiS2_LS4_2ELS5_13EXadL_Z14primitive_hashIiEjRKT_EEXadL_Z16primitive_equalsIiEbSA_SA_EEE9bucket_atEj(ptr noundef nonnull align 8 dereferenceable(20) %10, i32 noundef %14)
  store ptr %15, ptr %8, align 8
  br label %16

16:                                               ; preds = %34, %3
  %17 = load ptr, ptr %8, align 8
  %18 = load ptr, ptr %17, align 8
  %19 = icmp ne ptr %18, null
  br i1 %19, label %20, label %37

20:                                               ; preds = %16
  %21 = load ptr, ptr %8, align 8
  %22 = load ptr, ptr %21, align 8
  store ptr %22, ptr %9, align 8
  %23 = load ptr, ptr %9, align 8
  %24 = getelementptr inbounds %class.ResourceHashtableNode, ptr %23, i32 0, i32 0
  %25 = load i32, ptr %24, align 8
  %26 = load i32, ptr %5, align 4
  %27 = icmp eq i32 %25, %26
  br i1 %27, label %28, label %34

28:                                               ; preds = %20
  %29 = load ptr, ptr %6, align 8
  %30 = load ptr, ptr %9, align 8
  %31 = getelementptr inbounds %class.ResourceHashtableNode, ptr %30, i32 0, i32 1
  %32 = call noundef zeroext i1 @_Z16primitive_equalsIiEbRKT_S2_(ptr noundef nonnull align 4 dereferenceable(4) %29, ptr noundef nonnull align 4 dereferenceable(4) %31)
  br i1 %32, label %33, label %34

33:                                               ; preds = %28
  br label %37

34:                                               ; preds = %28, %20
  %35 = load ptr, ptr %9, align 8
  %36 = getelementptr inbounds %class.ResourceHashtableNode, ptr %35, i32 0, i32 3
  store ptr %36, ptr %8, align 8
  br label %16, !llvm.loop !45

37:                                               ; preds = %33, %16
  %38 = load ptr, ptr %8, align 8
  ret ptr %38
}

; Function Attrs: mustprogress nounwind uwtable
define linkonce_odr hidden noundef ptr @_ZNK21ResourceHashtableBaseI34ResizeableResourceHashtableStorageIiP13InstanceKlassLN6AnyObj15allocation_typeE2EL8MEMFLAGS13EEiS2_LS4_2ELS5_13EXadL_Z14primitive_hashIiEjRKT_EEXadL_Z16primitive_equalsIiEbSA_SA_EEE11lookup_nodeEjRKi(ptr noundef nonnull align 8 dereferenceable(20) %0, i32 noundef %1, ptr noundef nonnull align 4 dereferenceable(4) %2) #1 comdat align 2 {
  %4 = alloca ptr, align 8
  %5 = alloca i32, align 4
  %6 = alloca ptr, align 8
  store ptr %0, ptr %4, align 8
  store i32 %1, ptr %5, align 4
  store ptr %2, ptr %6, align 8
  %7 = load ptr, ptr %4, align 8
  %8 = load i32, ptr %5, align 4
  %9 = load ptr, ptr %6, align 8
  %10 = call noundef ptr @_ZN21ResourceHashtableBaseI34ResizeableResourceHashtableStorageIiP13InstanceKlassLN6AnyObj15allocation_typeE2EL8MEMFLAGS13EEiS2_LS4_2ELS5_13EXadL_Z14primitive_hashIiEjRKT_EEXadL_Z16primitive_equalsIiEbSA_SA_EEE11lookup_nodeEjRKi(ptr noundef nonnull align 8 dereferenceable(20) %7, i32 noundef %8, ptr noundef nonnull align 4 dereferenceable(4) %9)
  ret ptr %10
}

; Function Attrs: mustprogress nounwind uwtable
define linkonce_odr hidden noundef i32 @_Z14primitive_hashIiEjRKT_(ptr noundef nonnull align 4 dereferenceable(4) %0) #1 comdat {
  %2 = alloca ptr, align 8
  %3 = alloca i32, align 4
  store ptr %0, ptr %2, align 8
  %4 = load ptr, ptr %2, align 8
  %5 = load i32, ptr %4, align 4
  %6 = sext i32 %5 to i64
  %7 = trunc i64 %6 to i32
  store i32 %7, ptr %3, align 4
  %8 = load i32, ptr %3, align 4
  %9 = load i32, ptr %3, align 4
  %10 = lshr i32 %9, 3
  %11 = xor i32 %8, %10
  ret i32 %11
}

; Function Attrs: mustprogress nounwind uwtable
define linkonce_odr hidden noundef ptr @_ZNK21ResourceHashtableBaseI34ResizeableResourceHashtableStorageIiP13InstanceKlassLN6AnyObj15allocation_typeE2EL8MEMFLAGS13EEiS2_LS4_2ELS5_13EXadL_Z14primitive_hashIiEjRKT_EEXadL_Z16primitive_equalsIiEbSA_SA_EEE3getERKi(ptr noundef nonnull align 8 dereferenceable(20) %0, ptr noundef nonnull align 4 dereferenceable(4) %1) #1 comdat align 2 {
  %3 = alloca ptr, align 8
  %4 = alloca ptr, align 8
  %5 = alloca ptr, align 8
  %6 = alloca i32, align 4
  %7 = alloca ptr, align 8
  store ptr %0, ptr %4, align 8
  store ptr %1, ptr %5, align 8
  %8 = load ptr, ptr %4, align 8
  %9 = load ptr, ptr %5, align 8
  %10 = call noundef i32 @_Z14primitive_hashIiEjRKT_(ptr noundef nonnull align 4 dereferenceable(4) %9)
  store i32 %10, ptr %6, align 4
  %11 = load i32, ptr %6, align 4
  %12 = load ptr, ptr %5, align 8
  %13 = call noundef ptr @_ZNK21ResourceHashtableBaseI34ResizeableResourceHashtableStorageIiP13InstanceKlassLN6AnyObj15allocation_typeE2EL8MEMFLAGS13EEiS2_LS4_2ELS5_13EXadL_Z14primitive_hashIiEjRKT_EEXadL_Z16primitive_equalsIiEbSA_SA_EEE11lookup_nodeEjRKi(ptr noundef nonnull align 8 dereferenceable(20) %8, i32 noundef %11, ptr noundef nonnull align 4 dereferenceable(4) %12)
  store ptr %13, ptr %7, align 8
  %14 = load ptr, ptr %7, align 8
  %15 = load ptr, ptr %14, align 8
  %16 = icmp ne ptr %15, null
  br i1 %16, label %17, label %21

17:                                               ; preds = %2
  %18 = load ptr, ptr %7, align 8
  %19 = load ptr, ptr %18, align 8
  %20 = getelementptr inbounds %class.ResourceHashtableNode, ptr %19, i32 0, i32 2
  store ptr %20, ptr %3, align 8
  br label %22

21:                                               ; preds = %2
  store ptr null, ptr %3, align 8
  br label %22

22:                                               ; preds = %21, %17
  %23 = load ptr, ptr %3, align 8
  ret ptr %23
}

; Function Attrs: mustprogress nounwind uwtable
define linkonce_odr hidden noundef ptr @_ZN15ClassListParser14id2klass_tableEv(ptr noundef nonnull align 8 dereferenceable(520) %0) #1 comdat align 2 {
  %2 = alloca ptr, align 8
  store ptr %0, ptr %2, align 8
  %3 = load ptr, ptr %2, align 8
  %4 = getelementptr inbounds %class.ClassListParser, ptr %3, i32 0, i32 1
  ret ptr %4
}

; Function Attrs: mustprogress nounwind uwtable
define linkonce_odr hidden noundef ptr @_ZNK5Klass4nameEv(ptr noundef nonnull align 8 dereferenceable(196) %0) #1 comdat align 2 {
  %2 = alloca ptr, align 8
  store ptr %0, ptr %2, align 8
  %3 = load ptr, ptr %2, align 8
  %4 = getelementptr inbounds %class.Klass, ptr %3, i32 0, i32 5
  %5 = load ptr, ptr %4, align 8
  ret ptr %5
}

; Function Attrs: mustprogress nounwind uwtable
define hidden noundef ptr @_ZN15ClassListParser18lookup_class_by_idEi(ptr noundef nonnull align 8 dereferenceable(520) %0, i32 noundef %1) #1 align 2 {
  %3 = alloca ptr, align 8
  %4 = alloca i32, align 4
  %5 = alloca ptr, align 8
  store ptr %0, ptr %3, align 8
  store i32 %1, ptr %4, align 4
  %6 = load ptr, ptr %3, align 8
  %7 = call noundef ptr @_ZN15ClassListParser14id2klass_tableEv(ptr noundef nonnull align 8 dereferenceable(520) %6)
  %8 = call noundef ptr @_ZNK21ResourceHashtableBaseI34ResizeableResourceHashtableStorageIiP13InstanceKlassLN6AnyObj15allocation_typeE2EL8MEMFLAGS13EEiS2_LS4_2ELS5_13EXadL_Z14primitive_hashIiEjRKT_EEXadL_Z16primitive_equalsIiEbSA_SA_EEE3getERKi(ptr noundef nonnull align 8 dereferenceable(20) %7, ptr noundef nonnull align 4 dereferenceable(4) %4)
  store ptr %8, ptr %5, align 8
  %9 = load ptr, ptr %5, align 8
  %10 = icmp eq ptr %9, null
  br i1 %10, label %11, label %13

11:                                               ; preds = %2
  %12 = load i32, ptr %4, align 4
  call void (ptr, ptr, ...) @_ZN15ClassListParser5errorEPKcz(ptr noundef nonnull align 8 dereferenceable(520) %6, ptr noundef @.str.59, i32 noundef %12)
  br label %13

13:                                               ; preds = %11, %2
  %14 = load ptr, ptr %5, align 8
  %15 = load ptr, ptr %14, align 8
  ret ptr %15
}

; Function Attrs: mustprogress nounwind uwtable
define linkonce_odr hidden noundef i32 @_ZN15ClassListParser5superEv(ptr noundef nonnull align 8 dereferenceable(520) %0) #1 comdat align 2 {
  %2 = alloca ptr, align 8
  store ptr %0, ptr %2, align 8
  %3 = load ptr, ptr %2, align 8
  %4 = getelementptr inbounds %class.ClassListParser, ptr %3, i32 0, i32 9
  %5 = load i32, ptr %4, align 4
  ret i32 %5
}

; Function Attrs: mustprogress nounwind uwtable
define hidden noundef zeroext i1 @_ZN15ClassListParser22is_loading_from_sourceEv(ptr noundef nonnull align 8 dereferenceable(520) %0) #1 align 2 {
  %2 = alloca ptr, align 8
  store ptr %0, ptr %2, align 8
  %3 = load ptr, ptr %2, align 8
  %4 = getelementptr inbounds %class.ClassListParser, ptr %3, i32 0, i32 12
  %5 = load ptr, ptr %4, align 8
  %6 = icmp ne ptr %5, null
  ret i1 %6
}

; Function Attrs: mustprogress nounwind uwtable
define hidden noundef ptr @_ZN15ClassListParser30lookup_super_for_current_classEP6Symbol(ptr noundef nonnull align 8 dereferenceable(520) %0, ptr noundef %1) #1 align 2 {
  %3 = alloca ptr, align 8
  %4 = alloca ptr, align 8
  %5 = alloca ptr, align 8
  %6 = alloca ptr, align 8
  store ptr %0, ptr %4, align 8
  store ptr %1, ptr %5, align 8
  %7 = load ptr, ptr %4, align 8
  %8 = call noundef zeroext i1 @_ZN15ClassListParser22is_loading_from_sourceEv(ptr noundef nonnull align 8 dereferenceable(520) %7)
  br i1 %8, label %10, label %9

9:                                                ; preds = %2
  store ptr null, ptr %3, align 8
  br label %26

10:                                               ; preds = %2
  %11 = call noundef i32 @_ZN15ClassListParser5superEv(ptr noundef nonnull align 8 dereferenceable(520) %7)
  %12 = call noundef ptr @_ZN15ClassListParser18lookup_class_by_idEi(ptr noundef nonnull align 8 dereferenceable(520) %7, i32 noundef %11)
  store ptr %12, ptr %6, align 8
  %13 = load ptr, ptr %5, align 8
  %14 = load ptr, ptr %6, align 8
  %15 = call noundef ptr @_ZNK5Klass4nameEv(ptr noundef nonnull align 8 dereferenceable(196) %14)
  %16 = icmp ne ptr %13, %15
  br i1 %16, label %17, label %24

17:                                               ; preds = %10
  %18 = load ptr, ptr %6, align 8
  %19 = call noundef ptr @_ZNK5Klass4nameEv(ptr noundef nonnull align 8 dereferenceable(196) %18)
  %20 = call noundef ptr @_ZNK6Symbol22as_klass_external_nameEv(ptr noundef nonnull align 4 dereferenceable(8) %19)
  %21 = call noundef i32 @_ZN15ClassListParser5superEv(ptr noundef nonnull align 8 dereferenceable(520) %7)
  %22 = load ptr, ptr %5, align 8
  %23 = call noundef ptr @_ZNK6Symbol22as_klass_external_nameEv(ptr noundef nonnull align 4 dereferenceable(8) %22)
  call void (ptr, ptr, ...) @_ZN15ClassListParser5errorEPKcz(ptr noundef nonnull align 8 dereferenceable(520) %7, ptr noundef @.str.60, ptr noundef %20, i32 noundef %21, ptr noundef %23)
  br label %24

24:                                               ; preds = %17, %10
  %25 = load ptr, ptr %6, align 8
  store ptr %25, ptr %3, align 8
  br label %26

26:                                               ; preds = %24, %9
  %27 = load ptr, ptr %3, align 8
  ret ptr %27
}