; Function Attrs: mustprogress nounwind uwtable
define hidden noundef ptr @_ZN15ClassListParser30lookup_super_for_current_classEP6Symbol(ptr noundef nonnull align 8 dereferenceable(520) %0, ptr noundef %1) local_unnamed_addr #0 align 2 {
  %3 = getelementptr inbounds i8, ptr %0, i64 496
  %4 = load ptr, ptr %3, align 8
  %.not8 = icmp eq ptr %4, null
  br i1 %.not8, label %36, label %5

5:                                                ; preds = %2
  %6 = getelementptr inbounds i8, ptr %0, i64 476
  %7 = load i32, ptr %6, align 4
  %8 = getelementptr inbounds i8, ptr %0, i64 8
  %9 = lshr i32 %7, 3
  %10 = xor i32 %9, %7
  %11 = load i32, ptr %8, align 8
  %12 = urem i32 %10, %11
  %13 = getelementptr inbounds i8, ptr %0, i64 16
  %14 = load ptr, ptr %13, align 8
  %15 = zext i32 %12 to i64
  %16 = getelementptr inbounds ptr, ptr %14, i64 %15
  %17 = load ptr, ptr %16, align 8
  %.not11.i.i.i.i = icmp eq ptr %17, null
  br i1 %.not11.i.i.i.i, label %.loopexit.i, label %.lr.ph.i.i.i.i

.lr.ph.i.i.i.i:                                   ; preds = %5, %25
  %18 = phi ptr [ %27, %25 ], [ %17, %5 ]
  %19 = load i32, ptr %18, align 8
  %20 = icmp eq i32 %19, %10
  br i1 %20, label %21, label %25

21:                                               ; preds = %.lr.ph.i.i.i.i
  %22 = getelementptr inbounds i8, ptr %18, i64 4
  %23 = load i32, ptr %22, align 4
  %24 = icmp eq i32 %23, %7
  br i1 %24, label %_ZN15ClassListParser18lookup_class_by_idEi.exit, label %25

25:                                               ; preds = %21, %.lr.ph.i.i.i.i
  %26 = getelementptr inbounds i8, ptr %18, i64 16
  %27 = load ptr, ptr %26, align 8
  %.not.i.i.i.i = icmp eq ptr %27, null
  br i1 %.not.i.i.i.i, label %.loopexit.i, label %.lr.ph.i.i.i.i, !llvm.loop !17

.loopexit.i:                                      ; preds = %25, %5
  tail call void (ptr, ptr, ...) @_ZN15ClassListParser5errorEPKcz(ptr noundef nonnull align 8 dereferenceable(520) %0, ptr noundef nonnull @.str.59, i32 noundef %7)
  unreachable

_ZN15ClassListParser18lookup_class_by_idEi.exit:  ; preds = %21
  %28 = getelementptr inbounds i8, ptr %18, i64 8
  %29 = load ptr, ptr %28, align 8
  %30 = getelementptr inbounds i8, ptr %29, i64 24
  %31 = load ptr, ptr %30, align 8
  %.not = icmp eq ptr %31, %1
  br i1 %.not, label %36, label %32

32:                                               ; preds = %_ZN15ClassListParser18lookup_class_by_idEi.exit
  %33 = tail call noundef ptr @_ZNK6Symbol22as_klass_external_nameEv(ptr noundef nonnull align 4 dereferenceable(8) %31) #19
  %34 = load i32, ptr %6, align 4
  %35 = tail call noundef ptr @_ZNK6Symbol22as_klass_external_nameEv(ptr noundef nonnull align 4 dereferenceable(8) %1) #19
  tail call void (ptr, ptr, ...) @_ZN15ClassListParser5errorEPKcz(ptr noundef nonnull align 8 dereferenceable(520) %0, ptr noundef nonnull @.str.60, ptr noundef %33, i32 noundef %34, ptr noundef %35)
  br label %36

36:                                               ; preds = %_ZN15ClassListParser18lookup_class_by_idEi.exit, %32, %2
  %.0 = phi ptr [ null, %2 ], [ %29, %32 ], [ %29, %_ZN15ClassListParser18lookup_class_by_idEi.exit ]
  ret ptr %.0
}